                              1 ;--------------------------------------------------------
                              2 ; File Created by SDCC : free open source ANSI-C Compiler
                              3 ; Version 3.2.0 #8008 (Jul 27 2012) (Linux)
                              4 ; This file was generated Sun Sep  8 19:25:15 2013
                              5 ;--------------------------------------------------------
                              6 	.module conio
                              7 	.optsdcc -mz80
                              8 	
                              9 ;--------------------------------------------------------
                             10 ; Public variables in this module
                             11 ;--------------------------------------------------------
                             12 	.globl _putdec
                             13 	.globl _puthex
                             14 	.globl _putchar
                             15 	.globl _puts
                             16 	.globl _puthex8
                             17 	.globl _puthex16
                             18 	.globl _putdec8
                             19 	.globl _putdec16
                             20 ;--------------------------------------------------------
                             21 ; special function registers
                             22 ;--------------------------------------------------------
                             23 ;--------------------------------------------------------
                             24 ; ram data
                             25 ;--------------------------------------------------------
                             26 	.area _DATA
                             27 ;--------------------------------------------------------
                             28 ; absolute external ram data
                             29 ;--------------------------------------------------------
                             30 	.area _DABS (ABS)
                             31 ;--------------------------------------------------------
                             32 ; global & static initialisations
                             33 ;--------------------------------------------------------
                             34 	.area _HOME
                             35 	.area _GSINIT
                             36 	.area _GSFINAL
                             37 	.area _GSINIT
                             38 ;--------------------------------------------------------
                             39 ; Home
                             40 ;--------------------------------------------------------
                             41 	.area _HOME
                             42 	.area _HOME
                             43 ;--------------------------------------------------------
                             44 ; code
                             45 ;--------------------------------------------------------
                             46 	.area _CODE
                             47 ;src/conio.c:7: void puts(char *s) {
                             48 ;	---------------------------------
                             49 ; Function puts
                             50 ; ---------------------------------
   0000                      51 _puts_start::
   0000                      52 _puts:
                             53 ;src/conio.c:8: while (*s != 0) {
   0000 C1                   54 	pop	bc
   0001 E1                   55 	pop	hl
   0002 E5                   56 	push	hl
   0003 C5                   57 	push	bc
   0004                      58 00101$:
   0004 7E                   59 	ld	a,(hl)
   0005 B7                   60 	or	a, a
   0006 C8                   61 	ret	Z
                             62 ;src/conio.c:9: putchar(*s);
   0007 E5                   63 	push	hl
   0008 F5                   64 	push	af
   0009 33                   65 	inc	sp
   000A CDr00s00             66 	call	_putchar
   000D 33                   67 	inc	sp
   000E E1                   68 	pop	hl
                             69 ;src/conio.c:10: s++;
   000F 23                   70 	inc	hl
   0010 18 F2                71 	jr	00101$
   0012 C9                   72 	ret
   0013                      73 _puts_end::
                             74 ;src/conio.c:15: void puthex(int8_t nibbles, uint16_t v) {
                             75 ;	---------------------------------
                             76 ; Function puthex
                             77 ; ---------------------------------
   0013                      78 _puthex_start::
   0013                      79 _puthex:
                             80 ;src/conio.c:16: int8_t i = nibbles - 1;
   0013 21 02 00             81 	ld	hl, #2+0
   0016 39                   82 	add	hl, sp
   0017 5E                   83 	ld	e, (hl)
   0018 1D                   84 	dec	e
                             85 ;src/conio.c:17: while (i >= 0) {
   0019                      86 00104$:
   0019 CB 7B                87 	bit	7, e
   001B C0                   88 	ret	NZ
                             89 ;src/conio.c:18: uint16_t aux = (v >> (i << 2)) & 0x000F;
   001C 7B                   90 	ld	a,e
   001D 6F                   91 	ld	l,a
   001E 17                   92 	rla
   001F 9F                   93 	sbc	a, a
   0020 67                   94 	ld	h,a
   0021 29                   95 	add	hl, hl
   0022 29                   96 	add	hl, hl
   0023 7D                   97 	ld	a,l
   0024 3C                   98 	inc	a
   0025 F5                   99 	push	af
   0026 21 05 00            100 	ld	hl, #5
   0029 39                  101 	add	hl, sp
   002A 7E                  102 	ld	a, (hl)
   002B 23                  103 	inc	hl
   002C 66                  104 	ld	h, (hl)
   002D 6F                  105 	ld	l, a
   002E F1                  106 	pop	af
   002F 18 04               107 	jr	00117$
   0031                     108 00116$:
   0031 CB 3C               109 	srl	h
   0033 CB 1D               110 	rr	l
   0035                     111 00117$:
   0035 3D                  112 	dec	a
   0036 20 F9               113 	jr	NZ,00116$
   0038 7D                  114 	ld	a,l
   0039 E6 0F               115 	and	a, #0x0F
                            116 ;src/conio.c:19: uint8_t n = aux & 0x000F;
   003B E6 0F               117 	and	a, #0x0F
   003D 6F                  118 	ld	l,a
                            119 ;src/conio.c:20: if (n > 9)
   003E 3E 09               120 	ld	a,#0x09
   0040 95                  121 	sub	a, l
   0041 30 0D               122 	jr	NC,00102$
                            123 ;src/conio.c:21: putchar('A' + (n - 10));
   0043 7D                  124 	ld	a,l
   0044 C6 37               125 	add	a, #0x37
   0046 D5                  126 	push	de
   0047 F5                  127 	push	af
   0048 33                  128 	inc	sp
   0049 CDr00s00            129 	call	_putchar
   004C 33                  130 	inc	sp
   004D D1                  131 	pop	de
   004E 18 0B               132 	jr	00103$
   0050                     133 00102$:
                            134 ;src/conio.c:23: putchar('0' + n);
   0050 7D                  135 	ld	a,l
   0051 C6 30               136 	add	a, #0x30
   0053 D5                  137 	push	de
   0054 F5                  138 	push	af
   0055 33                  139 	inc	sp
   0056 CDr00s00            140 	call	_putchar
   0059 33                  141 	inc	sp
   005A D1                  142 	pop	de
   005B                     143 00103$:
                            144 ;src/conio.c:24: i--;
   005B 1D                  145 	dec	e
   005C 18 BB               146 	jr	00104$
   005E C9                  147 	ret
   005F                     148 _puthex_end::
                            149 ;src/conio.c:29: void puthex8(uint8_t v) {
                            150 ;	---------------------------------
                            151 ; Function puthex8
                            152 ; ---------------------------------
   005F                     153 _puthex8_start::
   005F                     154 _puthex8:
                            155 ;src/conio.c:30: puthex(2, (uint16_t) v);
   005F FD 21 02 00         156 	ld	iy,#2
   0063 FD 39               157 	add	iy,sp
   0065 FD 6E 00            158 	ld	l,0 (iy)
   0068 26 00               159 	ld	h,#0x00
   006A E5                  160 	push	hl
   006B 3E 02               161 	ld	a,#0x02
   006D F5                  162 	push	af
   006E 33                  163 	inc	sp
   006F CDr13s00            164 	call	_puthex
   0072 F1                  165 	pop	af
   0073 33                  166 	inc	sp
   0074 C9                  167 	ret
   0075                     168 _puthex8_end::
                            169 ;src/conio.c:34: void puthex16(uint16_t v) {
                            170 ;	---------------------------------
                            171 ; Function puthex16
                            172 ; ---------------------------------
   0075                     173 _puthex16_start::
   0075                     174 _puthex16:
                            175 ;src/conio.c:35: puthex(4, v);
   0075 C1                  176 	pop	bc
   0076 E1                  177 	pop	hl
   0077 E5                  178 	push	hl
   0078 C5                  179 	push	bc
   0079 E5                  180 	push	hl
   007A 3E 04               181 	ld	a,#0x04
   007C F5                  182 	push	af
   007D 33                  183 	inc	sp
   007E CDr13s00            184 	call	_puthex
   0081 F1                  185 	pop	af
   0082 33                  186 	inc	sp
   0083 C9                  187 	ret
   0084                     188 _puthex16_end::
                            189 ;src/conio.c:39: void putdec(int16_t digits, uint16_t v) {
                            190 ;	---------------------------------
                            191 ; Function putdec
                            192 ; ---------------------------------
   0084                     193 _putdec_start::
   0084                     194 _putdec:
                            195 ;src/conio.c:40: while (digits > 0) {
   0084                     196 00101$:
   0084 3E 00               197 	ld	a,#0x00
   0086 FD 21 02 00         198 	ld	iy,#2
   008A FD 39               199 	add	iy,sp
   008C FD 96 00            200 	sub	a, 0 (iy)
   008F 3E 00               201 	ld	a,#0x00
   0091 FD 9E 01            202 	sbc	a, 1 (iy)
   0094 E2r99s00            203 	jp	PO, 00110$
   0097 EE 80               204 	xor	a, #0x80
   0099                     205 00110$:
   0099 F0                  206 	ret	P
                            207 ;src/conio.c:41: uint16_t aux = v / digits;
   009A C1                  208 	pop	bc
   009B E1                  209 	pop	hl
   009C E5                  210 	push	hl
   009D C5                  211 	push	bc
   009E E5                  212 	push	hl
   009F 21 06 00            213 	ld	hl, #6
   00A2 39                  214 	add	hl, sp
   00A3 4E                  215 	ld	c, (hl)
   00A4 23                  216 	inc	hl
   00A5 46                  217 	ld	b, (hl)
   00A6 C5                  218 	push	bc
   00A7 CDr00s00            219 	call	__divuint_rrx_s
   00AA F1                  220 	pop	af
   00AB F1                  221 	pop	af
                            222 ;src/conio.c:42: uint8_t n = aux % 10;
   00AC 01 0A 00            223 	ld	bc,#0x000A
   00AF C5                  224 	push	bc
   00B0 E5                  225 	push	hl
   00B1 CDr00s00            226 	call	__moduint_rrx_s
   00B4 F1                  227 	pop	af
   00B5 F1                  228 	pop	af
   00B6 7D                  229 	ld	a,l
                            230 ;src/conio.c:43: putchar('0' + n);
   00B7 C6 30               231 	add	a, #0x30
   00B9 F5                  232 	push	af
   00BA 33                  233 	inc	sp
   00BB CDr00s00            234 	call	_putchar
   00BE 33                  235 	inc	sp
                            236 ;src/conio.c:44: digits /= 10;
   00BF 21 0A 00            237 	ld	hl,#0x000A
   00C2 E5                  238 	push	hl
   00C3 21 04 00            239 	ld	hl, #4
   00C6 39                  240 	add	hl, sp
   00C7 4E                  241 	ld	c, (hl)
   00C8 23                  242 	inc	hl
   00C9 46                  243 	ld	b, (hl)
   00CA C5                  244 	push	bc
   00CB CDr00s00            245 	call	__divsint_rrx_s
   00CE F1                  246 	pop	af
   00CF F1                  247 	pop	af
   00D0 FD 21 02 00         248 	ld	iy,#2
   00D4 FD 39               249 	add	iy,sp
   00D6 FD 75 00            250 	ld	0 (iy),l
   00D9 FD 74 01            251 	ld	1 (iy),h
   00DC 18 A6               252 	jr	00101$
   00DE C9                  253 	ret
   00DF                     254 _putdec_end::
                            255 ;src/conio.c:49: void putdec8(uint8_t v) {
                            256 ;	---------------------------------
                            257 ; Function putdec8
                            258 ; ---------------------------------
   00DF                     259 _putdec8_start::
   00DF                     260 _putdec8:
                            261 ;src/conio.c:50: putdec(100, (uint16_t) v);
   00DF FD 21 02 00         262 	ld	iy,#2
   00E3 FD 39               263 	add	iy,sp
   00E5 FD 6E 00            264 	ld	l,0 (iy)
   00E8 26 00               265 	ld	h,#0x00
   00EA E5                  266 	push	hl
   00EB 21 64 00            267 	ld	hl,#0x0064
   00EE E5                  268 	push	hl
   00EF CDr84s00            269 	call	_putdec
   00F2 F1                  270 	pop	af
   00F3 F1                  271 	pop	af
   00F4 C9                  272 	ret
   00F5                     273 _putdec8_end::
                            274 ;src/conio.c:54: void putdec16(uint16_t v) {
                            275 ;	---------------------------------
                            276 ; Function putdec16
                            277 ; ---------------------------------
   00F5                     278 _putdec16_start::
   00F5                     279 _putdec16:
                            280 ;src/conio.c:55: putdec(10000, v);
   00F5 C1                  281 	pop	bc
   00F6 E1                  282 	pop	hl
   00F7 E5                  283 	push	hl
   00F8 C5                  284 	push	bc
   00F9 E5                  285 	push	hl
   00FA 21 10 27            286 	ld	hl,#0x2710
   00FD E5                  287 	push	hl
   00FE CDr84s00            288 	call	_putdec
   0101 F1                  289 	pop	af
   0102 F1                  290 	pop	af
   0103 C9                  291 	ret
   0104                     292 _putdec16_end::
                            293 	.area _CODE
                            294 	.area _CABS (ABS)
